; Function Attrs: cold nounwind uwtable
define internal fastcc void @test7() unnamed_addr #6 {
  %1 = load ptr, ptr @stdout, align 8, !tbaa !4
  %2 = tail call i64 @fwrite(ptr nonnull @.str.41, i64 31, i64 1, ptr %1)
  %3 = load ptr, ptr @stderr, align 8, !tbaa !4
  %4 = tail call i64 @fwrite(ptr nonnull @.str.42, i64 31, i64 1, ptr %3) #14
  %5 = load ptr, ptr @stdout, align 8, !tbaa !4
  %6 = tail call i32 @fflush(ptr noundef %5)
  %7 = load ptr, ptr @stderr, align 8, !tbaa !4
  %8 = tail call i32 @fflush(ptr noundef %7)
  %9 = tail call i32 @sleep(i32 noundef 1) #13
  %10 = load ptr, ptr @stdout, align 8, !tbaa !4
  %11 = tail call i64 @fwrite(ptr nonnull @.str.43, i64 30, i64 1, ptr %10)
  %12 = load ptr, ptr @stderr, align 8, !tbaa !4
  %13 = tail call i64 @fwrite(ptr nonnull @.str.44, i64 30, i64 1, ptr %12) #14
  %14 = load ptr, ptr @stdout, align 8, !tbaa !4
  %15 = tail call i32 @fflush(ptr noundef %14)
  %16 = load ptr, ptr @stderr, align 8, !tbaa !4
  %17 = tail call i32 @fflush(ptr noundef %16)
  ret void
}